target datalayout = "e-m:e-p270:32:32-p271:32:32-p272:64:64-i64:64-i128:128-f80:128-n8:16:32:64-S128"
target triple = "x86_64-pc-linux-gnu"

%struct.DdManager = type { %struct.DdNode, ptr, ptr, ptr, ptr, ptr, ptr, ptr, i32, i32, double, double, double, i32, i32, i32, i32, i32, i32, ptr, ptr, %struct.DdSubtable, i32, i32, i32, i32, i32, i32, i32, double, i32, i32, i32, ptr, i64, double, i32, ptr, ptr, ptr, ptr, ptr, ptr, ptr, i32, ptr, ptr, ptr, ptr, ptr, ptr, i32, i32, i32, double, i32, i32, i32, i32, double, double, i32, i32, i32, i32, i32, i32, i32, i32, i32, ptr, ptr, i32, i32, i32, i32, i32, i32, ptr, ptr, ptr, ptr, ptr, ptr, ptr, ptr, i32, i64, i64, i64, i32, i64, i64, double, double, double, double, double, double, i32, ptr, ptr, i64 }
%struct.DdNode = type { i32, i32, ptr, %union.anon, i64 }
%union.anon = type { %struct.DdChildren }
%struct.DdChildren = type { ptr, ptr }
%struct.DdSubtable = type { ptr, i32, i32, i32, i32, i32, i32, i32, i32, i32, i32, i32 }

; Function Attrs: nounwind uwtable
define ptr @Extra_TransferLevelByLevel(ptr noundef %0, ptr noundef %1, ptr noundef %2) #0 {
  %4 = alloca ptr, align 8
  %5 = alloca ptr, align 8
  %6 = alloca ptr, align 8
  %7 = alloca ptr, align 8
  %8 = alloca ptr, align 8
  %9 = alloca i32, align 4
  %10 = alloca i32, align 4
  %11 = alloca i32, align 4
  store ptr %0, ptr %4, align 8, !tbaa !3
  store ptr %1, ptr %5, align 8, !tbaa !3
  store ptr %2, ptr %6, align 8, !tbaa !8
  call void @llvm.lifetime.start.p0(i64 8, ptr %7) #10
  call void @llvm.lifetime.start.p0(i64 8, ptr %8) #10
  call void @llvm.lifetime.start.p0(i64 4, ptr %9) #10
  call void @llvm.lifetime.start.p0(i64 4, ptr %10) #10
  call void @llvm.lifetime.start.p0(i64 4, ptr %11) #10
  %12 = load ptr, ptr %5, align 8, !tbaa !3
  %13 = getelementptr inbounds nuw %struct.DdManager, ptr %12, i32 0, i32 15
  %14 = load i32, ptr %13, align 8, !tbaa !36
  %15 = load ptr, ptr %4, align 8, !tbaa !3
  %16 = getelementptr inbounds nuw %struct.DdManager, ptr %15, i32 0, i32 15
  %17 = load i32, ptr %16, align 8, !tbaa !36
  %18 = icmp slt i32 %14, %17
  br i1 %18, label %19, label %23

19:                                               ; preds = %3
  %20 = load ptr, ptr %5, align 8, !tbaa !3
  %21 = getelementptr inbounds nuw %struct.DdManager, ptr %20, i32 0, i32 15
  %22 = load i32, ptr %21, align 8, !tbaa !36
  br label %27

23:                                               ; preds = %3
  %24 = load ptr, ptr %4, align 8, !tbaa !3
  %25 = getelementptr inbounds nuw %struct.DdManager, ptr %24, i32 0, i32 15
  %26 = load i32, ptr %25, align 8, !tbaa !36
  br label %27

27:                                               ; preds = %23, %19
  %28 = phi i32 [ %22, %19 ], [ %26, %23 ]
  store i32 %28, ptr %9, align 4, !tbaa !37
  %29 = load ptr, ptr %5, align 8, !tbaa !3
  %30 = getelementptr inbounds nuw %struct.DdManager, ptr %29, i32 0, i32 15
  %31 = load i32, ptr %30, align 8, !tbaa !36
  %32 = load ptr, ptr %4, align 8, !tbaa !3
  %33 = getelementptr inbounds nuw %struct.DdManager, ptr %32, i32 0, i32 15
  %34 = load i32, ptr %33, align 8, !tbaa !36
  %35 = icmp sgt i32 %31, %34
  br i1 %35, label %36, label %40

36:                                               ; preds = %27
  %37 = load ptr, ptr %5, align 8, !tbaa !3
  %38 = getelementptr inbounds nuw %struct.DdManager, ptr %37, i32 0, i32 15
  %39 = load i32, ptr %38, align 8, !tbaa !36
  br label %44

40:                                               ; preds = %27
  %41 = load ptr, ptr %4, align 8, !tbaa !3
  %42 = getelementptr inbounds nuw %struct.DdManager, ptr %41, i32 0, i32 15
  %43 = load i32, ptr %42, align 8, !tbaa !36
  br label %44

44:                                               ; preds = %40, %36
  %45 = phi i32 [ %39, %36 ], [ %43, %40 ]
  store i32 %45, ptr %10, align 4, !tbaa !37
  %46 = load i32, ptr %10, align 4, !tbaa !37
  %47 = sext i32 %46 to i64
  %48 = mul i64 4, %47
  %49 = call noalias ptr @malloc(i64 noundef %48) #11
  store ptr %49, ptr %8, align 8, !tbaa !10
  store i32 0, ptr %11, align 4, !tbaa !37
  br label %50

50:                                               ; preds = %72, %44
  %51 = load i32, ptr %11, align 4, !tbaa !37
  %52 = load i32, ptr %9, align 4, !tbaa !37
  %53 = icmp slt i32 %51, %52
  br i1 %53, label %54, label %75

54:                                               ; preds = %50
  %55 = load ptr, ptr %5, align 8, !tbaa !3
  %56 = getelementptr inbounds nuw %struct.DdManager, ptr %55, i32 0, i32 39
  %57 = load ptr, ptr %56, align 8, !tbaa !38
  %58 = load i32, ptr %11, align 4, !tbaa !37
  %59 = sext i32 %58 to i64
  %60 = getelementptr inbounds i32, ptr %57, i64 %59
  %61 = load i32, ptr %60, align 4, !tbaa !37
  %62 = load ptr, ptr %8, align 8, !tbaa !10
  %63 = load ptr, ptr %4, align 8, !tbaa !3
  %64 = getelementptr inbounds nuw %struct.DdManager, ptr %63, i32 0, i32 39
  %65 = load ptr, ptr %64, align 8, !tbaa !38
  %66 = load i32, ptr %11, align 4, !tbaa !37
  %67 = sext i32 %66 to i64
  %68 = getelementptr inbounds i32, ptr %65, i64 %67
  %69 = load i32, ptr %68, align 4, !tbaa !37
  %70 = sext i32 %69 to i64
  %71 = getelementptr inbounds i32, ptr %62, i64 %70
  store i32 %61, ptr %71, align 4, !tbaa !37
  br label %72

72:                                               ; preds = %54
  %73 = load i32, ptr %11, align 4, !tbaa !37
  %74 = add nsw i32 %73, 1
  store i32 %74, ptr %11, align 4, !tbaa !37
  br label %50, !llvm.loop !39

75:                                               ; preds = %50
  %76 = load ptr, ptr %4, align 8, !tbaa !3
  %77 = getelementptr inbounds nuw %struct.DdManager, ptr %76, i32 0, i32 15
  %78 = load i32, ptr %77, align 8, !tbaa !36
  %79 = load ptr, ptr %5, align 8, !tbaa !3
  %80 = getelementptr inbounds nuw %struct.DdManager, ptr %79, i32 0, i32 15
  %81 = load i32, ptr %80, align 8, !tbaa !36
  %82 = icmp sgt i32 %78, %81
  br i1 %82, label %83, label %103

83:                                               ; preds = %75
  br label %84

84:                                               ; preds = %99, %83
  %85 = load i32, ptr %11, align 4, !tbaa !37
  %86 = load i32, ptr %10, align 4, !tbaa !37
  %87 = icmp slt i32 %85, %86
  br i1 %87, label %88, label %102

88:                                               ; preds = %84
  %89 = load ptr, ptr %8, align 8, !tbaa !10
  %90 = load ptr, ptr %4, align 8, !tbaa !3
  %91 = getelementptr inbounds nuw %struct.DdManager, ptr %90, i32 0, i32 39
  %92 = load ptr, ptr %91, align 8, !tbaa !38
  %93 = load i32, ptr %11, align 4, !tbaa !37
  %94 = sext i32 %93 to i64
  %95 = getelementptr inbounds i32, ptr %92, i64 %94
  %96 = load i32, ptr %95, align 4, !tbaa !37
  %97 = sext i32 %96 to i64
  %98 = getelementptr inbounds i32, ptr %89, i64 %97
  store i32 -1, ptr %98, align 4, !tbaa !37
  br label %99

99:                                               ; preds = %88
  %100 = load i32, ptr %11, align 4, !tbaa !37
  %101 = add nsw i32 %100, 1
  store i32 %101, ptr %11, align 4, !tbaa !37
  br label %84, !llvm.loop !40

102:                                              ; preds = %84
  br label %103

103:                                              ; preds = %102, %75
  %104 = load ptr, ptr %4, align 8, !tbaa !3
  %105 = load ptr, ptr %5, align 8, !tbaa !3
  %106 = load ptr, ptr %6, align 8, !tbaa !8
  %107 = load ptr, ptr %8, align 8, !tbaa !10
  %108 = call ptr @Extra_TransferPermute(ptr noundef %104, ptr noundef %105, ptr noundef %106, ptr noundef %107)
  store ptr %108, ptr %7, align 8, !tbaa !8
  %109 = load ptr, ptr %8, align 8, !tbaa !10
  %110 = icmp ne ptr %109, null
  br i1 %110, label %111, label %113

111:                                              ; preds = %103
  %112 = load ptr, ptr %8, align 8, !tbaa !10
  call void @free(ptr noundef %112) #10
  store ptr null, ptr %8, align 8, !tbaa !10
  br label %114

113:                                              ; preds = %103
  br label %114

114:                                              ; preds = %113, %111
  %115 = load ptr, ptr %7, align 8, !tbaa !8
  call void @llvm.lifetime.end.p0(i64 4, ptr %11) #10
  call void @llvm.lifetime.end.p0(i64 4, ptr %10) #10
  call void @llvm.lifetime.end.p0(i64 4, ptr %9) #10
  call void @llvm.lifetime.end.p0(i64 8, ptr %8) #10
  call void @llvm.lifetime.end.p0(i64 8, ptr %7) #10
  ret ptr %115
}